; Function Attrs: nounwind uwtable
define ptr @l_Lake_buildFileAfterDep___rarg___boxed(ptr noundef %0, ptr noundef %1, ptr noundef %2, ptr noundef %3, ptr noundef %4, ptr noundef %5, ptr noundef %6, ptr noundef %7, ptr noundef %8, ptr noundef %9, ptr noundef %10) #0 {
  %12 = ptrtoint ptr %4 to i64
  %13 = and i64 %12, 1
  %.not = icmp eq i64 %13, 0
  br i1 %.not, label %14, label %lean_dec.exit

14:                                               ; preds = %11
  %15 = load i32, ptr %4, align 4, !tbaa !4
  %16 = icmp sgt i32 %15, 1
  br i1 %16, label %17, label %19, !prof !12

17:                                               ; preds = %14
  %18 = add nsw i32 %15, -1
  store i32 %18, ptr %4, align 4, !tbaa !4
  br label %lean_dec.exit

19:                                               ; preds = %14
  %.not.i = icmp eq i32 %15, 0
  br i1 %.not.i, label %lean_dec.exit, label %20

20:                                               ; preds = %19
  tail call void @lean_dec_ref_cold(ptr noundef nonnull %4) #5
  br label %lean_dec.exit

lean_dec.exit:                                    ; preds = %20, %19, %17, %11
  tail call void @lean_inc_heartbeat() #5
  %21 = tail call noalias ptr @mi_malloc_small(i64 noundef 56) #5
  %22 = icmp eq ptr %21, null
  br i1 %22, label %23, label %l_Lake_buildFileAfterDep___rarg.exit

23:                                               ; preds = %lean_dec.exit
  tail call void @lean_internal_panic_out_of_memory() #6
  unreachable

l_Lake_buildFileAfterDep___rarg.exit:             ; preds = %lean_dec.exit
  %24 = and i64 %12, 510
  %25 = or disjoint i64 %24, 1
  %26 = inttoptr i64 %25 to ptr
  %27 = getelementptr inbounds nuw i8, ptr %21, i64 4
  store i32 1, ptr %21, align 4, !tbaa !4
  store i32 -184549320, ptr %27, align 4
  %28 = getelementptr inbounds nuw i8, ptr %21, i64 8
  store ptr @l_Lake_buildFileAfterDep___rarg___lambda__1___boxed, ptr %28, align 8, !tbaa !9
  %29 = getelementptr inbounds nuw i8, ptr %21, i64 16
  store i16 11, ptr %29, align 8, !tbaa !15
  %30 = getelementptr inbounds nuw i8, ptr %21, i64 18
  store i16 4, ptr %30, align 2, !tbaa !15
  %31 = getelementptr inbounds nuw i8, ptr %21, i64 24
  store ptr %3, ptr %31, align 8, !tbaa !9
  %32 = getelementptr inbounds nuw i8, ptr %21, i64 32
  store ptr %2, ptr %32, align 8, !tbaa !9
  %33 = getelementptr inbounds nuw i8, ptr %21, i64 40
  store ptr %0, ptr %33, align 8, !tbaa !9
  %34 = getelementptr inbounds nuw i8, ptr %21, i64 48
  store ptr %26, ptr %34, align 8, !tbaa !9
  %35 = load ptr, ptr @l_Task_Priority_default, align 8, !tbaa !9
  %36 = tail call ptr @l_Lake_Job_mapM___at_Lake_buildFileAfterDep___spec__1___rarg(ptr noundef %1, ptr noundef nonnull %21, ptr noundef %35, i8 noundef zeroext 0, ptr noundef %5, ptr noundef %6, ptr noundef %7, ptr noundef %8, ptr noundef %9, ptr noundef %10)
  ret ptr %36
}